target datalayout = "e-m:e-p270:32:32-p271:32:32-p272:64:64-i64:64-i128:128-f80:128-n8:16:32:64-S128"
target triple = "x86_64-pc-linux-gnu"

@.str.1 = private unnamed_addr constant [59 x i8] c"adjust black, white and mid-gray points in RGB color space\00", align 1
@.str.2 = private unnamed_addr constant [24 x i8] c"corrective and creative\00", align 1
@.str.3 = private unnamed_addr constant [30 x i8] c"linear, RGB, display-referred\00", align 1
@.str.4 = private unnamed_addr constant [16 x i8] c"non-linear, RGB\00", align 1
@.str.5 = private unnamed_addr constant [34 x i8] c"non-linear, RGB, display-referred\00", align 1

; Function Attrs: nounwind uwtable
define ptr @description(ptr noundef %0) #0 {
  %2 = alloca ptr, align 8
  store ptr %0, ptr %2, align 8, !tbaa !6
  %3 = load ptr, ptr %2, align 8, !tbaa !6
  %4 = call ptr @dcgettext(ptr noundef null, ptr noundef @.str.1, i32 noundef 5) #13
  %5 = call ptr @dcgettext(ptr noundef null, ptr noundef @.str.2, i32 noundef 5) #13
  %6 = call ptr @dcgettext(ptr noundef null, ptr noundef @.str.3, i32 noundef 5) #13
  %7 = call ptr @dcgettext(ptr noundef null, ptr noundef @.str.4, i32 noundef 5) #13
  %8 = call ptr @dcgettext(ptr noundef null, ptr noundef @.str.5, i32 noundef 5) #13
  %9 = call ptr @dt_iop_set_description(ptr noundef %3, ptr noundef %4, ptr noundef %5, ptr noundef %6, ptr noundef %7, ptr noundef %8)
  ret ptr %9
}