; Function Attrs: nounwind uwtable
define ptr @description(ptr noundef %0) local_unnamed_addr #1 {
  %2 = tail call ptr @dcgettext(ptr noundef null, ptr noundef nonnull @.str.1, i32 noundef 5) #21
  %3 = tail call ptr @dcgettext(ptr noundef null, ptr noundef nonnull @.str.2, i32 noundef 5) #21
  %4 = tail call ptr @dcgettext(ptr noundef null, ptr noundef nonnull @.str.3, i32 noundef 5) #21
  %5 = tail call ptr @dcgettext(ptr noundef null, ptr noundef nonnull @.str.4, i32 noundef 5) #21
  %6 = tail call ptr @dcgettext(ptr noundef null, ptr noundef nonnull @.str.5, i32 noundef 5) #21
  %7 = tail call ptr @dt_iop_set_description(ptr noundef %0, ptr noundef %2, ptr noundef %3, ptr noundef %4, ptr noundef %5, ptr noundef %6) #21
  ret ptr %7
}